target datalayout = "e-m:e-p270:32:32-p271:32:32-p272:64:64-i64:64-i128:128-f80:128-n8:16:32:64-S128"
target triple = "x86_64-pc-linux-gnu"

@.str.10 = private unnamed_addr constant [11 x i8] c"dup failed\00", align 1

; Function Attrs: nounwind uwtable
define dso_local i32 @xdup(i32 noundef %0) #0 {
  %2 = alloca i32, align 4
  %3 = alloca i32, align 4
  store i32 %0, ptr %2, align 4, !tbaa !11
  call void @llvm.lifetime.start.p0(i64 4, ptr %3) #13
  %4 = load i32, ptr %2, align 4, !tbaa !11
  %5 = call i32 @dup(i32 noundef %4) #13
  store i32 %5, ptr %3, align 4, !tbaa !11
  %6 = load i32, ptr %3, align 4, !tbaa !11
  %7 = icmp slt i32 %6, 0
  br i1 %7, label %8, label %9

8:                                                ; preds = %1
  call void (ptr, ...) @die_errno(ptr noundef @.str.10) #14
  unreachable

9:                                                ; preds = %1
  %10 = load i32, ptr %3, align 4, !tbaa !11
  call void @llvm.lifetime.end.p0(i64 4, ptr %3) #13
  ret i32 %10
}