; Function Attrs: nounwind uwtable
define dso_local range(i32 0, -2147483648) i32 @xdup(i32 noundef %0) local_unnamed_addr #0 {
  %2 = tail call i32 @dup(i32 noundef %0) #20
  %3 = icmp slt i32 %2, 0
  br i1 %3, label %4, label %5

4:                                                ; preds = %1
  tail call void (ptr, ...) @die_errno(ptr noundef nonnull @.str.10) #21
  unreachable

5:                                                ; preds = %1
  ret i32 %2
}